; Function Attrs: nounwind uwtable
define range(i32 -1, 1) i32 @H5HF__iblock_incr(ptr noundef %0) local_unnamed_addr #0 {
  %2 = load i8, ptr @H5HF_init_g, align 1, !tbaa !3, !range !7, !noundef !8
  %3 = trunc nuw i8 %2 to i1
  %4 = load i8, ptr @H5_libterm_g, align 1, !range !7
  %5 = trunc nuw i8 %4 to i1
  %6 = xor i1 %5, true
  %7 = select i1 %3, i1 true, i1 %6
  br i1 %7, label %8, label %56, !prof !9

8:                                                ; preds = %1
  %9 = getelementptr inbounds nuw i8, ptr %0, i64 248
  %10 = load i64, ptr %9, align 8, !tbaa !10
  %11 = icmp eq i64 %10, 0
  br i1 %11, label %12, label %H5HF__iblock_pin.exit.thread

12:                                               ; preds = %8
  %13 = tail call i32 @H5AC_pin_protected_entry(ptr noundef nonnull %0) #6
  %14 = icmp slt i32 %13, 0
  br i1 %14, label %47, label %15

15:                                               ; preds = %12
  %16 = getelementptr inbounds nuw i8, ptr %0, i64 264
  %17 = load ptr, ptr %16, align 8, !tbaa !27
  %.not.i = icmp eq ptr %17, null
  br i1 %.not.i, label %33, label %18

18:                                               ; preds = %15
  %19 = getelementptr inbounds nuw i8, ptr %0, i64 280
  %20 = load i32, ptr %19, align 8, !tbaa !28
  %21 = getelementptr inbounds nuw i8, ptr %0, i64 256
  %22 = load ptr, ptr %21, align 8, !tbaa !29
  %23 = getelementptr inbounds nuw i8, ptr %22, i64 264
  %24 = getelementptr inbounds nuw i8, ptr %22, i64 312
  %25 = load i32, ptr %24, align 8, !tbaa !30
  %26 = load i32, ptr %23, align 8, !tbaa !42
  %27 = mul i32 %26, %25
  %28 = sub i32 %20, %27
  %29 = getelementptr inbounds nuw i8, ptr %17, i64 320
  %30 = load ptr, ptr %29, align 8, !tbaa !43
  %31 = zext i32 %28 to i64
  %32 = getelementptr inbounds nuw ptr, ptr %30, i64 %31
  store ptr %0, ptr %32, align 8, !tbaa !44
  br label %H5HF__iblock_pin.exit.thread

33:                                               ; preds = %15
  %34 = getelementptr inbounds nuw i8, ptr %0, i64 336
  %35 = load i64, ptr %34, align 8, !tbaa !45
  %36 = icmp eq i64 %35, 0
  br i1 %36, label %37, label %H5HF__iblock_pin.exit.thread

37:                                               ; preds = %33
  %38 = getelementptr inbounds nuw i8, ptr %0, i64 256
  %39 = load ptr, ptr %38, align 8, !tbaa !29
  %40 = getelementptr inbounds nuw i8, ptr %39, i64 632
  %41 = load i32, ptr %40, align 8, !tbaa !46
  %42 = icmp eq i32 %41, 0
  br i1 %42, label %43, label %45

43:                                               ; preds = %37
  %44 = getelementptr inbounds nuw i8, ptr %39, i64 624
  store ptr %0, ptr %44, align 8, !tbaa !47
  br label %45

45:                                               ; preds = %43, %37
  %46 = or i32 %41, 1
  store i32 %46, ptr %40, align 8, !tbaa !46
  br label %H5HF__iblock_pin.exit.thread

47:                                               ; preds = %12
  %48 = load i64, ptr @H5E_HEAP_g, align 8, !tbaa !48
  %49 = load i64, ptr @H5E_CANTPIN_g, align 8, !tbaa !48
  %50 = tail call i32 (ptr, ptr, i32, i64, i64, ptr, ...) @H5E_printf_stack(ptr noundef nonnull @.str.4, ptr noundef nonnull @__func__.H5HF__iblock_pin, i32 noundef 104, i64 noundef %48, i64 noundef %49, ptr noundef nonnull @.str.5) #6
  %51 = load i64, ptr @H5E_HEAP_g, align 8, !tbaa !48
  %52 = load i64, ptr @H5E_CANTPIN_g, align 8, !tbaa !48
  %53 = tail call i32 (ptr, ptr, i32, i64, i64, ptr, ...) @H5E_printf_stack(ptr noundef nonnull @.str.4, ptr noundef nonnull @__func__.H5HF__iblock_incr, i32 noundef 195, i64 noundef %51, i64 noundef %52, ptr noundef nonnull @.str.5) #6
  br label %56

H5HF__iblock_pin.exit.thread:                     ; preds = %33, %45, %18, %8
  %54 = load i64, ptr %9, align 8, !tbaa !10
  %55 = add i64 %54, 1
  store i64 %55, ptr %9, align 8, !tbaa !10
  br label %56

56:                                               ; preds = %47, %H5HF__iblock_pin.exit.thread, %1
  %.0 = phi i32 [ -1, %47 ], [ 0, %H5HF__iblock_pin.exit.thread ], [ 0, %1 ]
  ret i32 %.0
}